; Function Attrs: nounwind uwtable
define internal range(i32 -1, 2) i32 @quic_accept_connection_wait(ptr noundef %0) #0 {
  %2 = tail call i32 @ossl_quic_port_is_running(ptr noundef %0) #12
  %.not = icmp eq i32 %2, 0
  br i1 %.not, label %5, label %3

3:                                                ; preds = %1
  %4 = tail call i32 @ossl_quic_port_have_incoming(ptr noundef %0) #12
  %.not3 = icmp ne i32 %4, 0
  %. = zext i1 %.not3 to i32
  br label %5

5:                                                ; preds = %3, %1
  %.0 = phi i32 [ -1, %1 ], [ %., %3 ]
  ret i32 %.0
}